; Function Attrs: nounwind uwtable
define dso_local void @FreePageManagerPut(ptr noundef %0, i64 noundef %1, i64 noundef %2) local_unnamed_addr #2 {
  %4 = tail call fastcc i64 @FreePageManagerPutInternal(ptr noundef %0, i64 noundef %1, i64 noundef %2, i1 noundef zeroext false)
  %5 = icmp ugt i64 %4, %2
  br i1 %5, label %6, label %8

6:                                                ; preds = %3
  %7 = tail call fastcc i64 @FreePageBtreeCleanup(ptr noundef %0)
  %spec.select = tail call i64 @llvm.umax.i64(i64 %7, i64 %4)
  br label %8

8:                                                ; preds = %6, %3
  %.0 = phi i64 [ %spec.select, %6 ], [ %4, %3 ]
  %9 = getelementptr inbounds nuw i8, ptr %0, i64 48
  %10 = load i64, ptr %9, align 8
  %11 = icmp ult i64 %10, %.0
  br i1 %11, label %12, label %13

12:                                               ; preds = %8
  store i64 %.0, ptr %9, align 8
  br label %13

13:                                               ; preds = %12, %8
  %14 = getelementptr inbounds nuw i8, ptr %0, i64 56
  %15 = load i8, ptr %14, align 8, !range !4, !noundef !5
  %16 = trunc nuw i8 %15 to i1
  br i1 %16, label %17, label %FreePageManagerUpdateLargest.exit

17:                                               ; preds = %13
  %18 = load i64, ptr %0, align 8
  %19 = sub i64 1, %18
  %20 = getelementptr inbounds i8, ptr %0, i64 %19
  %21 = getelementptr inbounds nuw i8, ptr %0, i64 64
  %22 = getelementptr inbounds nuw i8, ptr %0, i64 1088
  %23 = load i64, ptr %22, align 8
  %24 = icmp eq i64 %23, 0
  br i1 %24, label %.preheader.i.i, label %.preheader27.i.i

.preheader27.i.i:                                 ; preds = %17, %.preheader27.i.i
  %.pn26.i.i = phi i64 [ %28, %.preheader27.i.i ], [ %23, %17 ]
  %.018.i.i = phi i64 [ %spec.select.i.i, %.preheader27.i.i ], [ 0, %17 ]
  %.pn.i.i = getelementptr inbounds nuw i8, ptr %20, i64 %.pn26.i.i
  %25 = getelementptr inbounds nuw i8, ptr %.pn.i.i, i64 7
  %26 = load i64, ptr %25, align 8
  %spec.select.i.i = tail call i64 @llvm.umax.i64(i64 %26, i64 %.018.i.i)
  %27 = getelementptr inbounds nuw i8, ptr %.pn.i.i, i64 23
  %28 = load i64, ptr %27, align 8
  %29 = icmp eq i64 %28, 0
  br i1 %29, label %FreePageManagerLargestContiguous.exit.i, label %.preheader27.i.i, !llvm.loop !6

.preheader.i.i:                                   ; preds = %17, %34
  %.0.i.i = phi i64 [ %30, %34 ], [ 128, %17 ]
  %30 = add nsw i64 %.0.i.i, -1
  %31 = getelementptr inbounds nuw [129 x %union.RelptrFreePageSpanLeader], ptr %21, i64 0, i64 %30
  %32 = load i64, ptr %31, align 8
  %33 = icmp eq i64 %32, 0
  br i1 %33, label %34, label %FreePageManagerLargestContiguous.exit.i

34:                                               ; preds = %.preheader.i.i
  %.not25.i.i = icmp eq i64 %30, 0
  br i1 %.not25.i.i, label %FreePageManagerLargestContiguous.exit.i, label %.preheader.i.i, !llvm.loop !8

FreePageManagerLargestContiguous.exit.i:          ; preds = %.preheader27.i.i, %34, %.preheader.i.i
  %.2.i.i = phi i64 [ %.0.i.i, %.preheader.i.i ], [ 0, %34 ], [ %spec.select.i.i, %.preheader27.i.i ]
  store i64 %.2.i.i, ptr %9, align 8
  store i8 0, ptr %14, align 8
  br label %FreePageManagerUpdateLargest.exit

FreePageManagerUpdateLargest.exit:                ; preds = %13, %FreePageManagerLargestContiguous.exit.i
  ret void
}